target datalayout = "e-m:e-p270:32:32-p271:32:32-p272:64:64-i64:64-i128:128-f80:128-n8:16:32:64-S128"
target triple = "x86_64-pc-linux-gnu"

%struct.block = type { ptr, ptr }

@.str.10 = private unnamed_addr constant [8 x i8] c"_modify\00", align 1
@.str.49 = private unnamed_addr constant [4 x i8] c"tmp\00", align 1

; Function Attrs: nounwind uwtable
define internal { ptr, ptr } @gen_update(ptr %0, ptr %1, ptr %2, ptr %3, i32 noundef %4) #0 {
  %6 = alloca %struct.block, align 8
  %7 = alloca %struct.block, align 8
  %8 = alloca %struct.block, align 8
  %9 = alloca i32, align 4
  %10 = alloca %struct.block, align 8
  %11 = alloca %struct.block, align 8
  %12 = alloca %struct.block, align 8
  %13 = alloca %struct.block, align 8
  %14 = alloca %struct.block, align 8
  %15 = alloca %struct.block, align 8
  %16 = alloca %struct.block, align 8
  %17 = alloca %struct.block, align 8
  %18 = alloca %struct.block, align 8
  %19 = alloca %struct.block, align 8
  %20 = alloca %struct.block, align 8
  %21 = getelementptr inbounds nuw { ptr, ptr }, ptr %7, i32 0, i32 0
  store ptr %0, ptr %21, align 8
  %22 = getelementptr inbounds nuw { ptr, ptr }, ptr %7, i32 0, i32 1
  store ptr %1, ptr %22, align 8
  %23 = getelementptr inbounds nuw { ptr, ptr }, ptr %8, i32 0, i32 0
  store ptr %2, ptr %23, align 8
  %24 = getelementptr inbounds nuw { ptr, ptr }, ptr %8, i32 0, i32 1
  store ptr %3, ptr %24, align 8
  store i32 %4, ptr %9, align 4, !tbaa !18
  call void @llvm.lifetime.start.p0(i64 16, ptr %10) #8
  %25 = call { ptr, ptr } @gen_op_var_fresh(i32 noundef 8, ptr noundef @.str.49)
  %26 = getelementptr inbounds nuw { ptr, ptr }, ptr %10, i32 0, i32 0
  %27 = extractvalue { ptr, ptr } %25, 0
  store ptr %27, ptr %26, align 8
  %28 = getelementptr inbounds nuw { ptr, ptr }, ptr %10, i32 0, i32 1
  %29 = extractvalue { ptr, ptr } %25, 1
  store ptr %29, ptr %28, align 8
  %30 = call { ptr, ptr } @gen_op_simple(i32 noundef 1)
  %31 = getelementptr inbounds nuw { ptr, ptr }, ptr %13, i32 0, i32 0
  %32 = extractvalue { ptr, ptr } %30, 0
  store ptr %32, ptr %31, align 8
  %33 = getelementptr inbounds nuw { ptr, ptr }, ptr %13, i32 0, i32 1
  %34 = extractvalue { ptr, ptr } %30, 1
  store ptr %34, ptr %33, align 8
  %35 = getelementptr inbounds nuw { ptr, ptr }, ptr %13, i32 0, i32 0
  %36 = load ptr, ptr %35, align 8
  %37 = getelementptr inbounds nuw { ptr, ptr }, ptr %13, i32 0, i32 1
  %38 = load ptr, ptr %37, align 8
  %39 = getelementptr inbounds nuw { ptr, ptr }, ptr %8, i32 0, i32 0
  %40 = load ptr, ptr %39, align 8
  %41 = getelementptr inbounds nuw { ptr, ptr }, ptr %8, i32 0, i32 1
  %42 = load ptr, ptr %41, align 8
  %43 = call { ptr, ptr } @block_join(ptr %36, ptr %38, ptr %40, ptr %42)
  %44 = getelementptr inbounds nuw { ptr, ptr }, ptr %12, i32 0, i32 0
  %45 = extractvalue { ptr, ptr } %43, 0
  store ptr %45, ptr %44, align 8
  %46 = getelementptr inbounds nuw { ptr, ptr }, ptr %12, i32 0, i32 1
  %47 = extractvalue { ptr, ptr } %43, 1
  store ptr %47, ptr %46, align 8
  %48 = getelementptr inbounds nuw { ptr, ptr }, ptr %12, i32 0, i32 0
  %49 = load ptr, ptr %48, align 8
  %50 = getelementptr inbounds nuw { ptr, ptr }, ptr %12, i32 0, i32 1
  %51 = load ptr, ptr %50, align 8
  %52 = getelementptr inbounds nuw { ptr, ptr }, ptr %10, i32 0, i32 0
  %53 = load ptr, ptr %52, align 8
  %54 = getelementptr inbounds nuw { ptr, ptr }, ptr %10, i32 0, i32 1
  %55 = load ptr, ptr %54, align 8
  %56 = call { ptr, ptr } @block_join(ptr %49, ptr %51, ptr %53, ptr %55)
  %57 = getelementptr inbounds nuw { ptr, ptr }, ptr %11, i32 0, i32 0
  %58 = extractvalue { ptr, ptr } %56, 0
  store ptr %58, ptr %57, align 8
  %59 = getelementptr inbounds nuw { ptr, ptr }, ptr %11, i32 0, i32 1
  %60 = extractvalue { ptr, ptr } %56, 1
  store ptr %60, ptr %59, align 8
  %61 = getelementptr inbounds nuw { ptr, ptr }, ptr %7, i32 0, i32 0
  %62 = load ptr, ptr %61, align 8
  %63 = getelementptr inbounds nuw { ptr, ptr }, ptr %7, i32 0, i32 1
  %64 = load ptr, ptr %63, align 8
  %65 = call { ptr, ptr } @gen_lambda(ptr %62, ptr %64)
  %66 = getelementptr inbounds nuw { ptr, ptr }, ptr %16, i32 0, i32 0
  %67 = extractvalue { ptr, ptr } %65, 0
  store ptr %67, ptr %66, align 8
  %68 = getelementptr inbounds nuw { ptr, ptr }, ptr %16, i32 0, i32 1
  %69 = extractvalue { ptr, ptr } %65, 1
  store ptr %69, ptr %68, align 8
  %70 = call { ptr, ptr } (...) @gen_noop()
  %71 = getelementptr inbounds nuw { ptr, ptr }, ptr %19, i32 0, i32 0
  %72 = extractvalue { ptr, ptr } %70, 0
  store ptr %72, ptr %71, align 8
  %73 = getelementptr inbounds nuw { ptr, ptr }, ptr %19, i32 0, i32 1
  %74 = extractvalue { ptr, ptr } %70, 1
  store ptr %74, ptr %73, align 8
  %75 = getelementptr inbounds nuw { ptr, ptr }, ptr %10, i32 0, i32 0
  %76 = load ptr, ptr %75, align 8
  %77 = getelementptr inbounds nuw { ptr, ptr }, ptr %10, i32 0, i32 1
  %78 = load ptr, ptr %77, align 8
  %79 = call { ptr, ptr } @gen_op_bound(i32 noundef 6, ptr %76, ptr %78)
  %80 = getelementptr inbounds nuw { ptr, ptr }, ptr %20, i32 0, i32 0
  %81 = extractvalue { ptr, ptr } %79, 0
  store ptr %81, ptr %80, align 8
  %82 = getelementptr inbounds nuw { ptr, ptr }, ptr %20, i32 0, i32 1
  %83 = extractvalue { ptr, ptr } %79, 1
  store ptr %83, ptr %82, align 8
  %84 = load i32, ptr %9, align 4, !tbaa !18
  %85 = getelementptr inbounds nuw { ptr, ptr }, ptr %19, i32 0, i32 0
  %86 = load ptr, ptr %85, align 8
  %87 = getelementptr inbounds nuw { ptr, ptr }, ptr %19, i32 0, i32 1
  %88 = load ptr, ptr %87, align 8
  %89 = getelementptr inbounds nuw { ptr, ptr }, ptr %20, i32 0, i32 0
  %90 = load ptr, ptr %89, align 8
  %91 = getelementptr inbounds nuw { ptr, ptr }, ptr %20, i32 0, i32 1
  %92 = load ptr, ptr %91, align 8
  %93 = call { ptr, ptr } @gen_binop(ptr %86, ptr %88, ptr %90, ptr %92, i32 noundef %84)
  %94 = getelementptr inbounds nuw { ptr, ptr }, ptr %18, i32 0, i32 0
  %95 = extractvalue { ptr, ptr } %93, 0
  store ptr %95, ptr %94, align 8
  %96 = getelementptr inbounds nuw { ptr, ptr }, ptr %18, i32 0, i32 1
  %97 = extractvalue { ptr, ptr } %93, 1
  store ptr %97, ptr %96, align 8
  %98 = getelementptr inbounds nuw { ptr, ptr }, ptr %18, i32 0, i32 0
  %99 = load ptr, ptr %98, align 8
  %100 = getelementptr inbounds nuw { ptr, ptr }, ptr %18, i32 0, i32 1
  %101 = load ptr, ptr %100, align 8
  %102 = call { ptr, ptr } @gen_lambda(ptr %99, ptr %101)
  %103 = getelementptr inbounds nuw { ptr, ptr }, ptr %17, i32 0, i32 0
  %104 = extractvalue { ptr, ptr } %102, 0
  store ptr %104, ptr %103, align 8
  %105 = getelementptr inbounds nuw { ptr, ptr }, ptr %17, i32 0, i32 1
  %106 = extractvalue { ptr, ptr } %102, 1
  store ptr %106, ptr %105, align 8
  %107 = getelementptr inbounds nuw { ptr, ptr }, ptr %16, i32 0, i32 0
  %108 = load ptr, ptr %107, align 8
  %109 = getelementptr inbounds nuw { ptr, ptr }, ptr %16, i32 0, i32 1
  %110 = load ptr, ptr %109, align 8
  %111 = getelementptr inbounds nuw { ptr, ptr }, ptr %17, i32 0, i32 0
  %112 = load ptr, ptr %111, align 8
  %113 = getelementptr inbounds nuw { ptr, ptr }, ptr %17, i32 0, i32 1
  %114 = load ptr, ptr %113, align 8
  %115 = call { ptr, ptr } @block_join(ptr %108, ptr %110, ptr %112, ptr %114)
  %116 = getelementptr inbounds nuw { ptr, ptr }, ptr %15, i32 0, i32 0
  %117 = extractvalue { ptr, ptr } %115, 0
  store ptr %117, ptr %116, align 8
  %118 = getelementptr inbounds nuw { ptr, ptr }, ptr %15, i32 0, i32 1
  %119 = extractvalue { ptr, ptr } %115, 1
  store ptr %119, ptr %118, align 8
  %120 = getelementptr inbounds nuw { ptr, ptr }, ptr %15, i32 0, i32 0
  %121 = load ptr, ptr %120, align 8
  %122 = getelementptr inbounds nuw { ptr, ptr }, ptr %15, i32 0, i32 1
  %123 = load ptr, ptr %122, align 8
  %124 = call { ptr, ptr } @gen_call(ptr noundef @.str.10, ptr %121, ptr %123)
  %125 = getelementptr inbounds nuw { ptr, ptr }, ptr %14, i32 0, i32 0
  %126 = extractvalue { ptr, ptr } %124, 0
  store ptr %126, ptr %125, align 8
  %127 = getelementptr inbounds nuw { ptr, ptr }, ptr %14, i32 0, i32 1
  %128 = extractvalue { ptr, ptr } %124, 1
  store ptr %128, ptr %127, align 8
  %129 = getelementptr inbounds nuw { ptr, ptr }, ptr %11, i32 0, i32 0
  %130 = load ptr, ptr %129, align 8
  %131 = getelementptr inbounds nuw { ptr, ptr }, ptr %11, i32 0, i32 1
  %132 = load ptr, ptr %131, align 8
  %133 = getelementptr inbounds nuw { ptr, ptr }, ptr %14, i32 0, i32 0
  %134 = load ptr, ptr %133, align 8
  %135 = getelementptr inbounds nuw { ptr, ptr }, ptr %14, i32 0, i32 1
  %136 = load ptr, ptr %135, align 8
  %137 = call { ptr, ptr } @block_join(ptr %130, ptr %132, ptr %134, ptr %136)
  %138 = getelementptr inbounds nuw { ptr, ptr }, ptr %6, i32 0, i32 0
  %139 = extractvalue { ptr, ptr } %137, 0
  store ptr %139, ptr %138, align 8
  %140 = getelementptr inbounds nuw { ptr, ptr }, ptr %6, i32 0, i32 1
  %141 = extractvalue { ptr, ptr } %137, 1
  store ptr %141, ptr %140, align 8
  call void @llvm.lifetime.end.p0(i64 16, ptr %10) #8
  %142 = load { ptr, ptr }, ptr %6, align 8
  ret { ptr, ptr } %142
}