; Function Attrs: nounwind uwtable
define internal fastcc { ptr, ptr } @gen_update(ptr %0, ptr %1, ptr %2, ptr %3, i32 noundef range(i32 37, 48) %4) unnamed_addr #0 {
  %6 = tail call { ptr, ptr } @gen_op_var_fresh(i32 noundef 8, ptr noundef nonnull @.str.49) #10
  %7 = extractvalue { ptr, ptr } %6, 0
  %8 = extractvalue { ptr, ptr } %6, 1
  %9 = tail call { ptr, ptr } @gen_op_simple(i32 noundef 1) #10
  %10 = extractvalue { ptr, ptr } %9, 0
  %11 = extractvalue { ptr, ptr } %9, 1
  %12 = tail call { ptr, ptr } @block_join(ptr %10, ptr %11, ptr %2, ptr %3) #10
  %13 = extractvalue { ptr, ptr } %12, 0
  %14 = extractvalue { ptr, ptr } %12, 1
  %15 = tail call { ptr, ptr } @block_join(ptr %13, ptr %14, ptr %7, ptr %8) #10
  %16 = extractvalue { ptr, ptr } %15, 0
  %17 = extractvalue { ptr, ptr } %15, 1
  %18 = tail call { ptr, ptr } @gen_lambda(ptr %0, ptr %1) #10
  %19 = extractvalue { ptr, ptr } %18, 0
  %20 = extractvalue { ptr, ptr } %18, 1
  %21 = tail call { ptr, ptr } (...) @gen_noop() #10
  %22 = extractvalue { ptr, ptr } %21, 0
  %23 = extractvalue { ptr, ptr } %21, 1
  %24 = tail call { ptr, ptr } @gen_op_bound(i32 noundef 6, ptr %7, ptr %8) #10
  %25 = extractvalue { ptr, ptr } %24, 0
  %26 = extractvalue { ptr, ptr } %24, 1
  %27 = tail call fastcc { ptr, ptr } @gen_binop(ptr %22, ptr %23, ptr %25, ptr %26, i32 noundef %4)
  %28 = extractvalue { ptr, ptr } %27, 0
  %29 = extractvalue { ptr, ptr } %27, 1
  %30 = tail call { ptr, ptr } @gen_lambda(ptr %28, ptr %29) #10
  %31 = extractvalue { ptr, ptr } %30, 0
  %32 = extractvalue { ptr, ptr } %30, 1
  %33 = tail call { ptr, ptr } @block_join(ptr %19, ptr %20, ptr %31, ptr %32) #10
  %34 = extractvalue { ptr, ptr } %33, 0
  %35 = extractvalue { ptr, ptr } %33, 1
  %36 = tail call { ptr, ptr } @gen_call(ptr noundef nonnull @.str.10, ptr %34, ptr %35) #10
  %37 = extractvalue { ptr, ptr } %36, 0
  %38 = extractvalue { ptr, ptr } %36, 1
  %39 = tail call { ptr, ptr } @block_join(ptr %16, ptr %17, ptr %37, ptr %38) #10
  ret { ptr, ptr } %39
}